target datalayout = "e-m:e-p270:32:32-p271:32:32-p272:64:64-i64:64-i128:128-f80:128-n8:16:32:64-S128"
target triple = "x86_64-pc-linux-gnu"

%struct.pwdmodulestate = type { ptr }
%struct.passwd = type { ptr, ptr, i32, i32, ptr, ptr, ptr }

; Function Attrs: alwaysinline nounwind uwtable
define internal void @Py_INCREF(ptr noundef %0) #5 {
  %2 = alloca ptr, align 8
  store ptr %0, ptr %2, align 8, !tbaa !4
  %3 = load ptr, ptr %2, align 8, !tbaa !4
  call void @_Py_IncRef(ptr noundef %3)
  ret void
}

; Function Attrs: inlinehint nounwind uwtable
define internal void @Py_DECREF(ptr noundef %0) #4 {
  %2 = alloca ptr, align 8
  store ptr %0, ptr %2, align 8, !tbaa !4
  %3 = load ptr, ptr %2, align 8, !tbaa !4
  call void @_Py_DecRef(ptr noundef %3)
  ret void
}

; Function Attrs: inlinehint nounwind uwtable
define internal ptr @_Py_NewRef(ptr noundef %0) #4 {
  %2 = alloca ptr, align 8
  store ptr %0, ptr %2, align 8, !tbaa !4
  %3 = load ptr, ptr %2, align 8, !tbaa !4
  call void @Py_INCREF(ptr noundef %3)
  %4 = load ptr, ptr %2, align 8, !tbaa !4
  ret ptr %4
}

; Function Attrs: inlinehint nounwind uwtable
define internal ptr @get_pwd_state(ptr noundef %0) #4 {
  %2 = alloca ptr, align 8
  %3 = alloca ptr, align 8
  store ptr %0, ptr %2, align 8, !tbaa !4
  call void @llvm.lifetime.start.p0(i64 8, ptr %3) #6
  %4 = load ptr, ptr %2, align 8, !tbaa !4
  %5 = call ptr @PyModule_GetState(ptr noundef %4)
  store ptr %5, ptr %3, align 8, !tbaa !9
  %6 = load ptr, ptr %3, align 8, !tbaa !9
  call void @llvm.lifetime.end.p0(i64 8, ptr %3) #6
  ret ptr %6
}

; Function Attrs: nounwind uwtable
define internal ptr @mkpwent(ptr noundef %0, ptr noundef %1) #0 {
  %3 = alloca ptr, align 8
  %4 = alloca ptr, align 8
  %5 = alloca ptr, align 8
  %6 = alloca ptr, align 8
  %7 = alloca i32, align 4
  %8 = alloca i32, align 4
  %9 = alloca ptr, align 8
  %10 = alloca ptr, align 8
  %11 = alloca ptr, align 8
  %12 = alloca ptr, align 8
  %13 = alloca ptr, align 8
  %14 = alloca ptr, align 8
  %15 = alloca ptr, align 8
  store ptr %0, ptr %4, align 8, !tbaa !4
  store ptr %1, ptr %5, align 8, !tbaa !24
  call void @llvm.lifetime.start.p0(i64 8, ptr %6) #6
  %16 = load ptr, ptr %4, align 8, !tbaa !4
  %17 = call ptr @get_pwd_state(ptr noundef %16)
  %18 = getelementptr inbounds nuw %struct.pwdmodulestate, ptr %17, i32 0, i32 0
  %19 = load ptr, ptr %18, align 8, !tbaa !10
  %20 = call ptr @PyStructSequence_New(ptr noundef %19)
  store ptr %20, ptr %6, align 8, !tbaa !4
  %21 = load ptr, ptr %6, align 8, !tbaa !4
  %22 = icmp eq ptr %21, null
  br i1 %22, label %23, label %24

23:                                               ; preds = %2
  store ptr null, ptr %3, align 8
  store i32 1, ptr %7, align 4
  br label %212

24:                                               ; preds = %2
  call void @llvm.lifetime.start.p0(i64 4, ptr %8) #6
  store i32 0, ptr %8, align 4, !tbaa !13
  br label %25

25:                                               ; preds = %24
  call void @llvm.lifetime.start.p0(i64 8, ptr %9) #6
  %26 = load ptr, ptr %5, align 8, !tbaa !24
  %27 = getelementptr inbounds nuw %struct.passwd, ptr %26, i32 0, i32 0
  %28 = load ptr, ptr %27, align 8, !tbaa !26
  %29 = icmp ne ptr %28, null
  br i1 %29, label %30, label %35

30:                                               ; preds = %25
  %31 = load ptr, ptr %5, align 8, !tbaa !24
  %32 = getelementptr inbounds nuw %struct.passwd, ptr %31, i32 0, i32 0
  %33 = load ptr, ptr %32, align 8, !tbaa !26
  %34 = call ptr @PyUnicode_DecodeFSDefault(ptr noundef %33)
  br label %38

35:                                               ; preds = %25
  %36 = call ptr @Py_GetConstantBorrowed(i32 noundef 0)
  %37 = call ptr @_Py_NewRef(ptr noundef %36)
  br label %38

38:                                               ; preds = %35, %30
  %39 = phi ptr [ %34, %30 ], [ %37, %35 ]
  store ptr %39, ptr %9, align 8, !tbaa !4
  %40 = load ptr, ptr %9, align 8, !tbaa !4
  %41 = icmp eq ptr %40, null
  br i1 %41, label %42, label %43

42:                                               ; preds = %38
  store i32 4, ptr %7, align 4
  br label %49

43:                                               ; preds = %38
  %44 = load ptr, ptr %6, align 8, !tbaa !4
  %45 = load i32, ptr %8, align 4, !tbaa !13
  %46 = add i32 %45, 1
  store i32 %46, ptr %8, align 4, !tbaa !13
  %47 = sext i32 %45 to i64
  %48 = load ptr, ptr %9, align 8, !tbaa !4
  call void @PyStructSequence_SetItem(ptr noundef %44, i64 noundef %47, ptr noundef %48)
  store i32 0, ptr %7, align 4
  br label %49

49:                                               ; preds = %42, %43
  call void @llvm.lifetime.end.p0(i64 8, ptr %9) #6
  %50 = load i32, ptr %7, align 4
  switch i32 %50, label %211 [
    i32 0, label %51
    i32 4, label %209
  ]

51:                                               ; preds = %49
  br label %52

52:                                               ; preds = %51
  br label %53

53:                                               ; preds = %52
  br label %54

54:                                               ; preds = %53
  call void @llvm.lifetime.start.p0(i64 8, ptr %10) #6
  %55 = load ptr, ptr %5, align 8, !tbaa !24
  %56 = getelementptr inbounds nuw %struct.passwd, ptr %55, i32 0, i32 1
  %57 = load ptr, ptr %56, align 8, !tbaa !28
  %58 = icmp ne ptr %57, null
  br i1 %58, label %59, label %64

59:                                               ; preds = %54
  %60 = load ptr, ptr %5, align 8, !tbaa !24
  %61 = getelementptr inbounds nuw %struct.passwd, ptr %60, i32 0, i32 1
  %62 = load ptr, ptr %61, align 8, !tbaa !28
  %63 = call ptr @PyUnicode_DecodeFSDefault(ptr noundef %62)
  br label %67

64:                                               ; preds = %54
  %65 = call ptr @Py_GetConstantBorrowed(i32 noundef 0)
  %66 = call ptr @_Py_NewRef(ptr noundef %65)
  br label %67

67:                                               ; preds = %64, %59
  %68 = phi ptr [ %63, %59 ], [ %66, %64 ]
  store ptr %68, ptr %10, align 8, !tbaa !4
  %69 = load ptr, ptr %10, align 8, !tbaa !4
  %70 = icmp eq ptr %69, null
  br i1 %70, label %71, label %72

71:                                               ; preds = %67
  store i32 4, ptr %7, align 4
  br label %78

72:                                               ; preds = %67
  %73 = load ptr, ptr %6, align 8, !tbaa !4
  %74 = load i32, ptr %8, align 4, !tbaa !13
  %75 = add i32 %74, 1
  store i32 %75, ptr %8, align 4, !tbaa !13
  %76 = sext i32 %74 to i64
  %77 = load ptr, ptr %10, align 8, !tbaa !4
  call void @PyStructSequence_SetItem(ptr noundef %73, i64 noundef %76, ptr noundef %77)
  store i32 0, ptr %7, align 4
  br label %78

78:                                               ; preds = %71, %72
  call void @llvm.lifetime.end.p0(i64 8, ptr %10) #6
  %79 = load i32, ptr %7, align 4
  switch i32 %79, label %211 [
    i32 0, label %80
    i32 4, label %209
  ]

80:                                               ; preds = %78
  br label %81

81:                                               ; preds = %80
  br label %82

82:                                               ; preds = %81
  br label %83

83:                                               ; preds = %82
  call void @llvm.lifetime.start.p0(i64 8, ptr %11) #6
  %84 = load ptr, ptr %5, align 8, !tbaa !24
  %85 = getelementptr inbounds nuw %struct.passwd, ptr %84, i32 0, i32 2
  %86 = load i32, ptr %85, align 8, !tbaa !29
  %87 = call ptr @_PyLong_FromUid(i32 noundef %86)
  store ptr %87, ptr %11, align 8, !tbaa !4
  %88 = load ptr, ptr %11, align 8, !tbaa !4
  %89 = icmp eq ptr %88, null
  br i1 %89, label %90, label %91

90:                                               ; preds = %83
  store i32 4, ptr %7, align 4
  br label %97

91:                                               ; preds = %83
  %92 = load ptr, ptr %6, align 8, !tbaa !4
  %93 = load i32, ptr %8, align 4, !tbaa !13
  %94 = add i32 %93, 1
  store i32 %94, ptr %8, align 4, !tbaa !13
  %95 = sext i32 %93 to i64
  %96 = load ptr, ptr %11, align 8, !tbaa !4
  call void @PyStructSequence_SetItem(ptr noundef %92, i64 noundef %95, ptr noundef %96)
  store i32 0, ptr %7, align 4
  br label %97

97:                                               ; preds = %90, %91
  call void @llvm.lifetime.end.p0(i64 8, ptr %11) #6
  %98 = load i32, ptr %7, align 4
  switch i32 %98, label %211 [
    i32 0, label %99
    i32 4, label %209
  ]

99:                                               ; preds = %97
  br label %100

100:                                              ; preds = %99
  br label %101

101:                                              ; preds = %100
  br label %102

102:                                              ; preds = %101
  call void @llvm.lifetime.start.p0(i64 8, ptr %12) #6
  %103 = load ptr, ptr %5, align 8, !tbaa !24
  %104 = getelementptr inbounds nuw %struct.passwd, ptr %103, i32 0, i32 3
  %105 = load i32, ptr %104, align 4, !tbaa !30
  %106 = call ptr @_PyLong_FromGid(i32 noundef %105)
  store ptr %106, ptr %12, align 8, !tbaa !4
  %107 = load ptr, ptr %12, align 8, !tbaa !4
  %108 = icmp eq ptr %107, null
  br i1 %108, label %109, label %110

109:                                              ; preds = %102
  store i32 4, ptr %7, align 4
  br label %116

110:                                              ; preds = %102
  %111 = load ptr, ptr %6, align 8, !tbaa !4
  %112 = load i32, ptr %8, align 4, !tbaa !13
  %113 = add i32 %112, 1
  store i32 %113, ptr %8, align 4, !tbaa !13
  %114 = sext i32 %112 to i64
  %115 = load ptr, ptr %12, align 8, !tbaa !4
  call void @PyStructSequence_SetItem(ptr noundef %111, i64 noundef %114, ptr noundef %115)
  store i32 0, ptr %7, align 4
  br label %116

116:                                              ; preds = %109, %110
  call void @llvm.lifetime.end.p0(i64 8, ptr %12) #6
  %117 = load i32, ptr %7, align 4
  switch i32 %117, label %211 [
    i32 0, label %118
    i32 4, label %209
  ]

118:                                              ; preds = %116
  br label %119

119:                                              ; preds = %118
  br label %120

120:                                              ; preds = %119
  br label %121

121:                                              ; preds = %120
  call void @llvm.lifetime.start.p0(i64 8, ptr %13) #6
  %122 = load ptr, ptr %5, align 8, !tbaa !24
  %123 = getelementptr inbounds nuw %struct.passwd, ptr %122, i32 0, i32 4
  %124 = load ptr, ptr %123, align 8, !tbaa !31
  %125 = icmp ne ptr %124, null
  br i1 %125, label %126, label %131

126:                                              ; preds = %121
  %127 = load ptr, ptr %5, align 8, !tbaa !24
  %128 = getelementptr inbounds nuw %struct.passwd, ptr %127, i32 0, i32 4
  %129 = load ptr, ptr %128, align 8, !tbaa !31
  %130 = call ptr @PyUnicode_DecodeFSDefault(ptr noundef %129)
  br label %134

131:                                              ; preds = %121
  %132 = call ptr @Py_GetConstantBorrowed(i32 noundef 0)
  %133 = call ptr @_Py_NewRef(ptr noundef %132)
  br label %134

134:                                              ; preds = %131, %126
  %135 = phi ptr [ %130, %126 ], [ %133, %131 ]
  store ptr %135, ptr %13, align 8, !tbaa !4
  %136 = load ptr, ptr %13, align 8, !tbaa !4
  %137 = icmp eq ptr %136, null
  br i1 %137, label %138, label %139

138:                                              ; preds = %134
  store i32 4, ptr %7, align 4
  br label %145

139:                                              ; preds = %134
  %140 = load ptr, ptr %6, align 8, !tbaa !4
  %141 = load i32, ptr %8, align 4, !tbaa !13
  %142 = add i32 %141, 1
  store i32 %142, ptr %8, align 4, !tbaa !13
  %143 = sext i32 %141 to i64
  %144 = load ptr, ptr %13, align 8, !tbaa !4
  call void @PyStructSequence_SetItem(ptr noundef %140, i64 noundef %143, ptr noundef %144)
  store i32 0, ptr %7, align 4
  br label %145

145:                                              ; preds = %138, %139
  call void @llvm.lifetime.end.p0(i64 8, ptr %13) #6
  %146 = load i32, ptr %7, align 4
  switch i32 %146, label %211 [
    i32 0, label %147
    i32 4, label %209
  ]

147:                                              ; preds = %145
  br label %148

148:                                              ; preds = %147
  br label %149

149:                                              ; preds = %148
  br label %150

150:                                              ; preds = %149
  call void @llvm.lifetime.start.p0(i64 8, ptr %14) #6
  %151 = load ptr, ptr %5, align 8, !tbaa !24
  %152 = getelementptr inbounds nuw %struct.passwd, ptr %151, i32 0, i32 5
  %153 = load ptr, ptr %152, align 8, !tbaa !32
  %154 = icmp ne ptr %153, null
  br i1 %154, label %155, label %160

155:                                              ; preds = %150
  %156 = load ptr, ptr %5, align 8, !tbaa !24
  %157 = getelementptr inbounds nuw %struct.passwd, ptr %156, i32 0, i32 5
  %158 = load ptr, ptr %157, align 8, !tbaa !32
  %159 = call ptr @PyUnicode_DecodeFSDefault(ptr noundef %158)
  br label %163

160:                                              ; preds = %150
  %161 = call ptr @Py_GetConstantBorrowed(i32 noundef 0)
  %162 = call ptr @_Py_NewRef(ptr noundef %161)
  br label %163

163:                                              ; preds = %160, %155
  %164 = phi ptr [ %159, %155 ], [ %162, %160 ]
  store ptr %164, ptr %14, align 8, !tbaa !4
  %165 = load ptr, ptr %14, align 8, !tbaa !4
  %166 = icmp eq ptr %165, null
  br i1 %166, label %167, label %168

167:                                              ; preds = %163
  store i32 4, ptr %7, align 4
  br label %174

168:                                              ; preds = %163
  %169 = load ptr, ptr %6, align 8, !tbaa !4
  %170 = load i32, ptr %8, align 4, !tbaa !13
  %171 = add i32 %170, 1
  store i32 %171, ptr %8, align 4, !tbaa !13
  %172 = sext i32 %170 to i64
  %173 = load ptr, ptr %14, align 8, !tbaa !4
  call void @PyStructSequence_SetItem(ptr noundef %169, i64 noundef %172, ptr noundef %173)
  store i32 0, ptr %7, align 4
  br label %174

174:                                              ; preds = %167, %168
  call void @llvm.lifetime.end.p0(i64 8, ptr %14) #6
  %175 = load i32, ptr %7, align 4
  switch i32 %175, label %211 [
    i32 0, label %176
    i32 4, label %209
  ]

176:                                              ; preds = %174
  br label %177

177:                                              ; preds = %176
  br label %178

178:                                              ; preds = %177
  br label %179

179:                                              ; preds = %178
  call void @llvm.lifetime.start.p0(i64 8, ptr %15) #6
  %180 = load ptr, ptr %5, align 8, !tbaa !24
  %181 = getelementptr inbounds nuw %struct.passwd, ptr %180, i32 0, i32 6
  %182 = load ptr, ptr %181, align 8, !tbaa !33
  %183 = icmp ne ptr %182, null
  br i1 %183, label %184, label %189

184:                                              ; preds = %179
  %185 = load ptr, ptr %5, align 8, !tbaa !24
  %186 = getelementptr inbounds nuw %struct.passwd, ptr %185, i32 0, i32 6
  %187 = load ptr, ptr %186, align 8, !tbaa !33
  %188 = call ptr @PyUnicode_DecodeFSDefault(ptr noundef %187)
  br label %192

189:                                              ; preds = %179
  %190 = call ptr @Py_GetConstantBorrowed(i32 noundef 0)
  %191 = call ptr @_Py_NewRef(ptr noundef %190)
  br label %192

192:                                              ; preds = %189, %184
  %193 = phi ptr [ %188, %184 ], [ %191, %189 ]
  store ptr %193, ptr %15, align 8, !tbaa !4
  %194 = load ptr, ptr %15, align 8, !tbaa !4
  %195 = icmp eq ptr %194, null
  br i1 %195, label %196, label %197

196:                                              ; preds = %192
  store i32 4, ptr %7, align 4
  br label %203

197:                                              ; preds = %192
  %198 = load ptr, ptr %6, align 8, !tbaa !4
  %199 = load i32, ptr %8, align 4, !tbaa !13
  %200 = add i32 %199, 1
  store i32 %200, ptr %8, align 4, !tbaa !13
  %201 = sext i32 %199 to i64
  %202 = load ptr, ptr %15, align 8, !tbaa !4
  call void @PyStructSequence_SetItem(ptr noundef %198, i64 noundef %201, ptr noundef %202)
  store i32 0, ptr %7, align 4
  br label %203

203:                                              ; preds = %196, %197
  call void @llvm.lifetime.end.p0(i64 8, ptr %15) #6
  %204 = load i32, ptr %7, align 4
  switch i32 %204, label %211 [
    i32 0, label %205
    i32 4, label %209
  ]

205:                                              ; preds = %203
  br label %206

206:                                              ; preds = %205
  br label %207

207:                                              ; preds = %206
  %208 = load ptr, ptr %6, align 8, !tbaa !4
  store ptr %208, ptr %3, align 8
  store i32 1, ptr %7, align 4
  br label %211

209:                                              ; preds = %203, %174, %145, %116, %97, %78, %49
  %210 = load ptr, ptr %6, align 8, !tbaa !4
  call void @Py_DECREF(ptr noundef %210)
  store ptr null, ptr %3, align 8
  store i32 1, ptr %7, align 4
  br label %211

211:                                              ; preds = %209, %207, %203, %174, %145, %116, %97, %78, %49
  call void @llvm.lifetime.end.p0(i64 4, ptr %8) #6
  br label %212

212:                                              ; preds = %211, %23
  call void @llvm.lifetime.end.p0(i64 8, ptr %6) #6
  %213 = load ptr, ptr %3, align 8
  ret ptr %213
}