; Function Attrs: nounwind uwtable
define internal fastcc ptr @mkpwent(ptr noundef %0, ptr noundef nonnull readonly captures(none) %1) unnamed_addr #0 {
  %3 = tail call ptr @PyModule_GetState(ptr noundef %0) #4
  %4 = load ptr, ptr %3, align 8, !tbaa !4
  %5 = tail call ptr @PyStructSequence_New(ptr noundef %4) #4
  %6 = icmp eq ptr %5, null
  br i1 %6, label %67, label %7

7:                                                ; preds = %2
  %8 = load ptr, ptr %1, align 8, !tbaa !23
  %.not = icmp eq ptr %8, null
  br i1 %.not, label %11, label %9

9:                                                ; preds = %7
  %10 = tail call ptr @PyUnicode_DecodeFSDefault(ptr noundef nonnull %8) #4
  br label %13

11:                                               ; preds = %7
  %12 = tail call ptr @Py_GetConstantBorrowed(i32 noundef 0) #4
  tail call void @_Py_IncRef(ptr noundef %12) #4
  br label %13

13:                                               ; preds = %11, %9
  %14 = phi ptr [ %10, %9 ], [ %12, %11 ]
  %15 = icmp eq ptr %14, null
  br i1 %15, label %66, label %16

16:                                               ; preds = %13
  tail call void @PyStructSequence_SetItem(ptr noundef nonnull %5, i64 noundef 0, ptr noundef nonnull %14) #4
  %17 = getelementptr inbounds nuw i8, ptr %1, i64 8
  %18 = load ptr, ptr %17, align 8, !tbaa !25
  %.not72 = icmp eq ptr %18, null
  br i1 %.not72, label %21, label %19

19:                                               ; preds = %16
  %20 = tail call ptr @PyUnicode_DecodeFSDefault(ptr noundef nonnull %18) #4
  br label %23

21:                                               ; preds = %16
  %22 = tail call ptr @Py_GetConstantBorrowed(i32 noundef 0) #4
  tail call void @_Py_IncRef(ptr noundef %22) #4
  br label %23

23:                                               ; preds = %21, %19
  %24 = phi ptr [ %20, %19 ], [ %22, %21 ]
  %25 = icmp eq ptr %24, null
  br i1 %25, label %66, label %26

26:                                               ; preds = %23
  tail call void @PyStructSequence_SetItem(ptr noundef nonnull %5, i64 noundef 1, ptr noundef nonnull %24) #4
  %27 = getelementptr inbounds nuw i8, ptr %1, i64 16
  %28 = load i32, ptr %27, align 8, !tbaa !26
  %29 = tail call ptr @_PyLong_FromUid(i32 noundef %28) #4
  %30 = icmp eq ptr %29, null
  br i1 %30, label %66, label %31

31:                                               ; preds = %26
  tail call void @PyStructSequence_SetItem(ptr noundef nonnull %5, i64 noundef 2, ptr noundef nonnull %29) #4
  %32 = getelementptr inbounds nuw i8, ptr %1, i64 20
  %33 = load i32, ptr %32, align 4, !tbaa !27
  %34 = tail call ptr @_PyLong_FromGid(i32 noundef %33) #4
  %35 = icmp eq ptr %34, null
  br i1 %35, label %66, label %36

36:                                               ; preds = %31
  tail call void @PyStructSequence_SetItem(ptr noundef nonnull %5, i64 noundef 3, ptr noundef nonnull %34) #4
  %37 = getelementptr inbounds nuw i8, ptr %1, i64 24
  %38 = load ptr, ptr %37, align 8, !tbaa !28
  %.not73 = icmp eq ptr %38, null
  br i1 %.not73, label %41, label %39

39:                                               ; preds = %36
  %40 = tail call ptr @PyUnicode_DecodeFSDefault(ptr noundef nonnull %38) #4
  br label %43

41:                                               ; preds = %36
  %42 = tail call ptr @Py_GetConstantBorrowed(i32 noundef 0) #4
  tail call void @_Py_IncRef(ptr noundef %42) #4
  br label %43

43:                                               ; preds = %41, %39
  %44 = phi ptr [ %40, %39 ], [ %42, %41 ]
  %45 = icmp eq ptr %44, null
  br i1 %45, label %66, label %46

46:                                               ; preds = %43
  tail call void @PyStructSequence_SetItem(ptr noundef nonnull %5, i64 noundef 4, ptr noundef nonnull %44) #4
  %47 = getelementptr inbounds nuw i8, ptr %1, i64 32
  %48 = load ptr, ptr %47, align 8, !tbaa !29
  %.not74 = icmp eq ptr %48, null
  br i1 %.not74, label %51, label %49

49:                                               ; preds = %46
  %50 = tail call ptr @PyUnicode_DecodeFSDefault(ptr noundef nonnull %48) #4
  br label %53

51:                                               ; preds = %46
  %52 = tail call ptr @Py_GetConstantBorrowed(i32 noundef 0) #4
  tail call void @_Py_IncRef(ptr noundef %52) #4
  br label %53

53:                                               ; preds = %51, %49
  %54 = phi ptr [ %50, %49 ], [ %52, %51 ]
  %55 = icmp eq ptr %54, null
  br i1 %55, label %66, label %56

56:                                               ; preds = %53
  tail call void @PyStructSequence_SetItem(ptr noundef nonnull %5, i64 noundef 5, ptr noundef nonnull %54) #4
  %57 = getelementptr inbounds nuw i8, ptr %1, i64 40
  %58 = load ptr, ptr %57, align 8, !tbaa !30
  %.not75 = icmp eq ptr %58, null
  br i1 %.not75, label %61, label %59

59:                                               ; preds = %56
  %60 = tail call ptr @PyUnicode_DecodeFSDefault(ptr noundef nonnull %58) #4
  br label %63

61:                                               ; preds = %56
  %62 = tail call ptr @Py_GetConstantBorrowed(i32 noundef 0) #4
  tail call void @_Py_IncRef(ptr noundef %62) #4
  br label %63

63:                                               ; preds = %61, %59
  %64 = phi ptr [ %60, %59 ], [ %62, %61 ]
  %65 = icmp eq ptr %64, null
  br i1 %65, label %66, label %.thread124

.thread124:                                       ; preds = %63
  tail call void @PyStructSequence_SetItem(ptr noundef nonnull %5, i64 noundef 6, ptr noundef nonnull %64) #4
  br label %67

66:                                               ; preds = %63, %53, %43, %31, %26, %23, %13
  tail call void @_Py_DecRef(ptr noundef nonnull %5) #4
  br label %67

67:                                               ; preds = %.thread124, %66, %2
  %.0 = phi ptr [ null, %2 ], [ null, %66 ], [ %5, %.thread124 ]
  ret ptr %.0
}